; Function Attrs: nofree norecurse nosync nounwind memory(argmem: readwrite) uwtable
define internal void @copy_s16(ptr noundef writeonly captures(none) %0, ptr noundef readonly captures(none) %1, ptr noundef readonly captures(none) %2, i32 noundef %3, i32 noundef %4) #0 {
  %6 = sext i32 %3 to i64
  %7 = getelementptr inbounds i32, ptr %2, i64 %6
  %8 = load i32, ptr %7, align 4, !tbaa !34
  %9 = icmp sgt i32 %4, 0
  br i1 %9, label %.lr.ph.preheader, label %._crit_edge

.lr.ph.preheader:                                 ; preds = %5
  %wide.trip.count = zext nneg i32 %4 to i64
  br label %.lr.ph

.lr.ph:                                           ; preds = %.lr.ph.preheader, %.lr.ph
  %indvars.iv = phi i64 [ 0, %.lr.ph.preheader ], [ %indvars.iv.next, %.lr.ph ]
  %10 = getelementptr inbounds nuw i16, ptr %1, i64 %indvars.iv
  %11 = load i16, ptr %10, align 2, !tbaa !76
  %12 = sext i16 %11 to i32
  %13 = mul nsw i32 %8, %12
  %14 = add nsw i32 %13, 16384
  %15 = lshr i32 %14, 15
  %16 = trunc i32 %15 to i16
  %17 = getelementptr inbounds nuw i16, ptr %0, i64 %indvars.iv
  store i16 %16, ptr %17, align 2, !tbaa !76
  %indvars.iv.next = add nuw nsw i64 %indvars.iv, 1
  %exitcond.not = icmp eq i64 %indvars.iv.next, %wide.trip.count
  br i1 %exitcond.not, label %._crit_edge, label %.lr.ph, !llvm.loop !78

._crit_edge:                                      ; preds = %.lr.ph, %5
  ret void
}